; Function Attrs: mustprogress uwtable
define void @_Z22gmx_ana_pos_init_constP13gmx_ana_pos_tPKf(ptr noundef %0, ptr nocapture noundef readonly %1) local_unnamed_addr #0 {
  %3 = tail call noundef ptr @_Z11save_callocPKcS0_imm(ptr noundef nonnull @.str.4, ptr noundef nonnull @.str.1, i32 noundef 170, i64 noundef 1, i64 noundef 12)
  store ptr %3, ptr %0, align 8
  %4 = getelementptr inbounds i8, ptr %0, i64 8
  %5 = tail call noundef ptr @_Z11save_callocPKcS0_imm(ptr noundef nonnull @.str.5, ptr noundef nonnull @.str.1, i32 noundef 171, i64 noundef 1, i64 noundef 12)
  store ptr %5, ptr %4, align 8
  %6 = getelementptr inbounds i8, ptr %0, i64 16
  %7 = tail call noundef ptr @_Z11save_callocPKcS0_imm(ptr noundef nonnull @.str.6, ptr noundef nonnull @.str.1, i32 noundef 172, i64 noundef 1, i64 noundef 12)
  store ptr %7, ptr %6, align 8
  %8 = getelementptr inbounds i8, ptr %0, i64 144
  store i32 1, ptr %8, align 8
  %9 = load ptr, ptr %0, align 8
  %10 = load float, ptr %1, align 4
  store float %10, ptr %9, align 4
  %11 = getelementptr inbounds i8, ptr %1, i64 4
  %12 = load float, ptr %11, align 4
  %13 = getelementptr inbounds i8, ptr %9, i64 4
  store float %12, ptr %13, align 4
  %14 = getelementptr inbounds i8, ptr %1, i64 8
  %15 = load float, ptr %14, align 4
  %16 = getelementptr inbounds i8, ptr %9, i64 8
  store float %15, ptr %16, align 4
  %17 = load ptr, ptr %4, align 8
  store <2 x float> zeroinitializer, ptr %17, align 4
  %18 = getelementptr inbounds i8, ptr %17, i64 8
  store float 0.000000e+00, ptr %18, align 4
  %19 = load ptr, ptr %6, align 8
  store <2 x float> zeroinitializer, ptr %19, align 4
  %20 = getelementptr inbounds i8, ptr %19, i64 8
  store float 0.000000e+00, ptr %20, align 4
  %21 = getelementptr inbounds i8, ptr %0, i64 24
  tail call void @_Z21gmx_ana_indexmap_initP18gmx_ana_indexmap_tP15gmx_ana_index_tPK10gmx_mtop_t9e_index_t(ptr noundef nonnull %21, ptr noundef null, ptr noundef null, i32 noundef 0)
  ret void
}